target datalayout = "e-m:e-p270:32:32-p271:32:32-p272:64:64-i64:64-i128:128-f80:128-n8:16:32:64-S128"
target triple = "x86_64-pc-linux-gnu"

%"class.cv::FileNode" = type { ptr, i64, i64 }
%"class.cv::FileNodeIterator" = type { ptr, i64, i64, i64, i64, i64 }

@_ZN2cv8FileNodeC1EPNS_11FileStorage4ImplEmm = unnamed_addr alias void (ptr, ptr, i64, i64), ptr @_ZN2cv8FileNodeC2EPNS_11FileStorage4ImplEmm

; Function Attrs: mustprogress uwtable
define void @_ZNK2cv16FileNodeIteratordeEv(ptr dead_on_unwind noalias writable sret(%"class.cv::FileNode") align 8 %0, ptr noundef nonnull align 8 dereferenceable(48) %1) #4 align 2 {
  %3 = alloca ptr, align 8
  %4 = alloca ptr, align 8
  store ptr %0, ptr %3, align 8
  store ptr %1, ptr %4, align 8, !tbaa !216
  %5 = load ptr, ptr %4, align 8
  %6 = getelementptr inbounds nuw %"class.cv::FileNodeIterator", ptr %5, i32 0, i32 5
  %7 = load i64, ptr %6, align 8, !tbaa !218
  %8 = getelementptr inbounds nuw %"class.cv::FileNodeIterator", ptr %5, i32 0, i32 4
  %9 = load i64, ptr %8, align 8, !tbaa !220
  %10 = icmp ult i64 %7, %9
  br i1 %10, label %11, label %14

11:                                               ; preds = %2
  %12 = getelementptr inbounds nuw %"class.cv::FileNodeIterator", ptr %5, i32 0, i32 0
  %13 = load ptr, ptr %12, align 8, !tbaa !221
  br label %15

14:                                               ; preds = %2
  br label %15

15:                                               ; preds = %14, %11
  %16 = phi ptr [ %13, %11 ], [ null, %14 ]
  %17 = getelementptr inbounds nuw %"class.cv::FileNodeIterator", ptr %5, i32 0, i32 1
  %18 = load i64, ptr %17, align 8, !tbaa !222
  %19 = getelementptr inbounds nuw %"class.cv::FileNodeIterator", ptr %5, i32 0, i32 2
  %20 = load i64, ptr %19, align 8, !tbaa !223
  call void @_ZN2cv8FileNodeC1EPNS_11FileStorage4ImplEmm(ptr noundef nonnull align 8 dereferenceable(24) %0, ptr noundef %16, i64 noundef %18, i64 noundef %20)
  ret void
}