; Function Attrs: mustprogress uwtable
define void @_ZNK2cv16FileNodeIteratordeEv(ptr dead_on_unwind noalias writable sret(%"class.cv::FileNode") align 8 %0, ptr noundef nonnull readonly align 8 captures(none) dereferenceable(48) %1) local_unnamed_addr #13 align 2 {
  %3 = getelementptr inbounds nuw i8, ptr %1, i64 40
  %4 = load i64, ptr %3, align 8, !tbaa !255
  %5 = getelementptr inbounds nuw i8, ptr %1, i64 32
  %6 = load i64, ptr %5, align 8, !tbaa !260
  %7 = icmp ult i64 %4, %6
  %8 = load ptr, ptr %1, align 8
  %spec.select = select i1 %7, ptr %8, ptr null
  %9 = getelementptr inbounds nuw i8, ptr %1, i64 8
  %10 = load i64, ptr %9, align 8, !tbaa !261
  %11 = getelementptr inbounds nuw i8, ptr %1, i64 16
  %12 = load i64, ptr %11, align 8, !tbaa !262
  tail call void @_ZN2cv8FileNodeC1EPNS_11FileStorage4ImplEmm(ptr noundef nonnull align 8 dereferenceable(24) %0, ptr noundef %spec.select, i64 noundef %10, i64 noundef %12)
  ret void
}